; Function Attrs: mustprogress nofree norecurse nosync nounwind willreturn memory(argmem: read) uwtable
define noundef i32 @_ZN5Ipopt25IpoptCalculatedQuantities19AdjustedTrialSlacksEv(ptr noundef nonnull readonly align 8 captures(none) dereferenceable(2185) %0) local_unnamed_addr #8 align 2 {
  %2 = getelementptr inbounds nuw i8, ptr %0, i64 272
  %3 = load i32, ptr %2, align 8, !tbaa !165
  %4 = getelementptr inbounds nuw i8, ptr %0, i64 276
  %5 = load i32, ptr %4, align 4, !tbaa !206
  %6 = add nsw i32 %5, %3
  %7 = getelementptr inbounds nuw i8, ptr %0, i64 280
  %8 = load i32, ptr %7, align 8, !tbaa !234
  %9 = add nsw i32 %6, %8
  %10 = getelementptr inbounds nuw i8, ptr %0, i64 284
  %11 = load i32, ptr %10, align 4, !tbaa !262
  %12 = add nsw i32 %9, %11
  ret i32 %12
}